; Function Attrs: mustprogress nounwind uwtable
define dso_local void @_ZNK4llvm3pdb13NativeSession20findLineNumbersByRVAEjj(ptr dead_on_unwind noalias writable sret(%"class.std::unique_ptr.211") align 8 %0, ptr noundef nonnull align 8 dereferenceable(584) %1, i32 noundef %2, i32 noundef %3) unnamed_addr #0 align 2 {
  %5 = getelementptr inbounds nuw i8, ptr %1, i64 24
  %6 = load ptr, ptr %1, align 8
  %7 = getelementptr inbounds nuw i8, ptr %6, i64 16
  %8 = load ptr, ptr %7, align 8
  %9 = tail call noundef i64 %8(ptr noundef nonnull align 8 dereferenceable(584) %1) #16
  %10 = zext i32 %2 to i64
  %11 = add i64 %9, %10
  tail call void @_ZNK4llvm3pdb11SymbolCache19findLineNumbersByVAEmj(ptr dead_on_unwind writable sret(%"class.std::unique_ptr.211") align 8 %0, ptr noundef nonnull align 8 dereferenceable(280) %5, i64 noundef %11, i32 noundef %3) #16
  ret void
}